#include <math.h>
#include <stdio.h>
#include <stdlib.h>
#include <string.h>


int main()
{
    int k = 0;
    scanf("%d", &k);
    for( ; k>0;k-- )
    {
        int m = 0, n = 0;
        scanf("%d %d", &m, &n);
        int i = 0, j = 0, x = 0;
        int sum = 0;
        for ( i = 0; i < m; i++ )
        {
            for ( j = 0; j < n; j++ )
            {
                scanf("%d", &x );
                if ( i == 0 || j == 0 || i == m-1 || j == n-1 )
                {
                    sum+=x;
                }
            }
        }
        printf("%d\n",sum);
    }
    return 0;
}
