; ModuleID = '6/3658.c'
source_filename = "6/3658.c"
target datalayout = "e-m:e-p270:32:32-p271:32:32-p272:64:64-i64:64-f80:128-n8:16:32:64-S128"
target triple = "x86_64-pc-linux-gnu"

@.str = private unnamed_addr constant [3 x i8] c"%d\00", align 1
@.str.1 = private unnamed_addr constant [6 x i8] c"%d %d\00", align 1
@.str.2 = private unnamed_addr constant [4 x i8] c"%d\0A\00", align 1

; Function Attrs: noinline nounwind uwtable
define dso_local i32 @main() #0 {
  %1 = alloca i32, align 4
  %2 = alloca i32, align 4
  %3 = alloca i32, align 4
  %4 = alloca i32, align 4
  %5 = alloca i32, align 4
  %6 = alloca i32, align 4
  %7 = alloca i32, align 4
  %8 = alloca i32, align 4
  store i32 0, i32* %1, align 4
  store i32 0, i32* %2, align 4
  %9 = call i32 (i8*, ...) @__isoc99_scanf(i8* getelementptr inbounds ([3 x i8], [3 x i8]* @.str, i64 0, i64 0), i32* %2)
  br label %10

10:                                               ; preds = %56, %0
  %11 = load i32, i32* %2, align 4
  %12 = icmp sgt i32 %11, 0
  br i1 %12, label %13, label %59

13:                                               ; preds = %10
  store i32 0, i32* %3, align 4
  store i32 0, i32* %4, align 4
  %14 = call i32 (i8*, ...) @__isoc99_scanf(i8* getelementptr inbounds ([6 x i8], [6 x i8]* @.str.1, i64 0, i64 0), i32* %3, i32* %4)
  store i32 0, i32* %5, align 4
  store i32 0, i32* %6, align 4
  store i32 0, i32* %7, align 4
  store i32 0, i32* %8, align 4
  store i32 0, i32* %5, align 4
  br label %15

15:                                               ; preds = %50, %13
  %16 = load i32, i32* %5, align 4
  %17 = load i32, i32* %3, align 4
  %18 = icmp slt i32 %16, %17
  br i1 %18, label %19, label %53

19:                                               ; preds = %15
  store i32 0, i32* %6, align 4
  br label %20

20:                                               ; preds = %46, %19
  %21 = load i32, i32* %6, align 4
  %22 = load i32, i32* %4, align 4
  %23 = icmp slt i32 %21, %22
  br i1 %23, label %24, label %49

24:                                               ; preds = %20
  %25 = call i32 (i8*, ...) @__isoc99_scanf(i8* getelementptr inbounds ([3 x i8], [3 x i8]* @.str, i64 0, i64 0), i32* %7)
  %26 = load i32, i32* %5, align 4
  %27 = icmp eq i32 %26, 0
  br i1 %27, label %41, label %28

28:                                               ; preds = %24
  %29 = load i32, i32* %6, align 4
  %30 = icmp eq i32 %29, 0
  br i1 %30, label %41, label %31

31:                                               ; preds = %28
  %32 = load i32, i32* %5, align 4
  %33 = load i32, i32* %3, align 4
  %34 = sub nsw i32 %33, 1
  %35 = icmp eq i32 %32, %34
  br i1 %35, label %41, label %36

36:                                               ; preds = %31
  %37 = load i32, i32* %6, align 4
  %38 = load i32, i32* %4, align 4
  %39 = sub nsw i32 %38, 1
  %40 = icmp eq i32 %37, %39
  br i1 %40, label %41, label %45

41:                                               ; preds = %36, %31, %28, %24
  %42 = load i32, i32* %7, align 4
  %43 = load i32, i32* %8, align 4
  %44 = add nsw i32 %43, %42
  store i32 %44, i32* %8, align 4
  br label %45

45:                                               ; preds = %41, %36
  br label %46

46:                                               ; preds = %45
  %47 = load i32, i32* %6, align 4
  %48 = add nsw i32 %47, 1
  store i32 %48, i32* %6, align 4
  br label %20

49:                                               ; preds = %20
  br label %50

50:                                               ; preds = %49
  %51 = load i32, i32* %5, align 4
  %52 = add nsw i32 %51, 1
  store i32 %52, i32* %5, align 4
  br label %15

53:                                               ; preds = %15
  %54 = load i32, i32* %8, align 4
  %55 = call i32 (i8*, ...) @printf(i8* getelementptr inbounds ([4 x i8], [4 x i8]* @.str.2, i64 0, i64 0), i32 %54)
  br label %56

56:                                               ; preds = %53
  %57 = load i32, i32* %2, align 4
  %58 = add nsw i32 %57, -1
  store i32 %58, i32* %2, align 4
  br label %10

59:                                               ; preds = %10
  ret i32 0
}

declare dso_local i32 @__isoc99_scanf(i8*, ...) #1

declare dso_local i32 @printf(i8*, ...) #1


!llvm.module.flags = !{!0}
!llvm.ident = !{!1}

!0 = !{i32 1, !"wchar_size", i32 4}
!1 = !{!"clang version 10.0.0-4ubuntu1 "}
